target datalayout = "e-m:e-p270:32:32-p271:32:32-p272:64:64-i64:64-i128:128-f80:128-n8:16:32:64-S128"
target triple = "x86_64-pc-linux-gnu"

%struct.pm_string_t = type { ptr, i64, i32 }
%struct.pm_parser = type { i32, i32, i32, i32, i32, i32, i32, %struct.anon.5, ptr, ptr, %struct.pm_token_t, %struct.pm_token_t, ptr, ptr, %struct.pm_list_t, %struct.pm_list_t, %struct.pm_location_t, %struct.pm_list_t, %struct.pm_list_t, ptr, ptr, ptr, ptr, ptr, ptr, ptr, %struct.pm_string_t, %struct.pm_constant_pool_t, %struct.pm_newline_list_t, i16, %struct.pm_string_t, i32, ptr, ptr, i32, i8, i8, i8, i8, i8, i8, i8, i8, i8, i8, i8, i8, i8 }
%struct.anon.5 = type { ptr, [4 x %struct.pm_lex_mode], i64 }
%struct.pm_lex_mode = type { i32, %union.anon.6, ptr }
%union.anon.6 = type { %struct.anon.10 }
%struct.anon.10 = type { %struct.pm_heredoc_lex_mode_t, ptr, ptr, i8 }
%struct.pm_heredoc_lex_mode_t = type { ptr, i64, i32, i32 }
%struct.pm_token_t = type { i32, ptr, ptr }
%struct.pm_location_t = type { ptr, ptr }
%struct.pm_list_t = type { i64, ptr, ptr }
%struct.pm_constant_pool_t = type { ptr, ptr, i32, i32 }
%struct.pm_newline_list_t = type { ptr, i64, i64, ptr }
%struct.pm_encoding_t = type { ptr, ptr, ptr, ptr, ptr, i8 }
%struct.parse_lex_data_t = type { i64, i64, ptr, i8 }
%struct.pm_lex_callback_t = type { ptr, ptr }
%struct.RBasic = type { i64, i64 }
%struct.RArray = type { %struct.RBasic, %union.anon.2 }
%union.anon.2 = type { %struct.anon.3 }
%struct.anon.3 = type { i64, %union.anon.4, ptr }
%union.anon.4 = type { i64 }

@rb_cPrismToken = hidden global i64 0, align 8
@parse_lex_encoding_changed_callback.rbimpl_id = internal global i64 0, align 8
@.str.72 = private unnamed_addr constant [7 x i8] c"@value\00", align 1
@parse_lex_encoding_changed_callback.rbimpl_id.73 = internal global i64 0, align 8
@.str.74 = private unnamed_addr constant [6 x i8] c"@type\00", align 1
@parse_lex_encoding_changed_callback.rbimpl_id.75 = internal global i64 0, align 8
@.str.76 = private unnamed_addr constant [10 x i8] c"@location\00", align 1

; Function Attrs: inlinehint nounwind sspstrong willreturn memory(read) uwtable
define internal i64 @RB_FL_TEST_RAW(i64 noundef %0, i64 noundef %1) #4 {
  %3 = alloca i64, align 8
  %4 = alloca i64, align 8
  store i64 %0, ptr %3, align 8, !tbaa !7
  store i64 %1, ptr %4, align 8, !tbaa !7
  %5 = load i64, ptr %3, align 8, !tbaa !7
  %6 = inttoptr i64 %5 to ptr
  %7 = getelementptr inbounds nuw %struct.RBasic, ptr %6, i32 0, i32 0
  %8 = load i64, ptr %7, align 8, !tbaa !78
  %9 = load i64, ptr %4, align 8, !tbaa !7
  %10 = and i64 %8, %9
  ret i64 %10
}

; Function Attrs: inlinehint nounwind sspstrong willreturn memory(read) uwtable
define internal i64 @rb_intern_const(ptr noundef nonnull %0) #4 {
  %2 = alloca ptr, align 8
  %3 = alloca i64, align 8
  store ptr %0, ptr %2, align 8, !tbaa !11
  call void @llvm.lifetime.start.p0(i64 8, ptr %3) #24
  %4 = load ptr, ptr %2, align 8, !tbaa !11
  %5 = call i64 @strlen(ptr noundef %4) #21
  store i64 %5, ptr %3, align 8, !tbaa !7
  %6 = load ptr, ptr %2, align 8, !tbaa !11
  %7 = load i64, ptr %3, align 8, !tbaa !7
  %8 = call i64 @rb_intern2(ptr noundef %6, i64 noundef %7)
  call void @llvm.lifetime.end.p0(i64 8, ptr %3) #24
  ret i64 %8
}

; Function Attrs: inlinehint nounwind sspstrong willreturn memory(read) uwtable
define internal i64 @RARRAY_EMBED_LEN(i64 noundef %0) #4 {
  %2 = alloca i64, align 8
  %3 = alloca i64, align 8
  store i64 %0, ptr %2, align 8, !tbaa !7
  call void @llvm.lifetime.start.p0(i64 8, ptr %3) #24
  %4 = load i64, ptr %2, align 8, !tbaa !7
  %5 = inttoptr i64 %4 to ptr
  %6 = getelementptr inbounds nuw %struct.RBasic, ptr %5, i32 0, i32 0
  %7 = load i64, ptr %6, align 8, !tbaa !78
  store i64 %7, ptr %3, align 8, !tbaa !7
  %8 = load i64, ptr %3, align 8, !tbaa !7
  %9 = and i64 %8, 4161536
  store i64 %9, ptr %3, align 8, !tbaa !7
  %10 = load i64, ptr %3, align 8, !tbaa !7
  %11 = lshr i64 %10, 15
  store i64 %11, ptr %3, align 8, !tbaa !7
  %12 = load i64, ptr %3, align 8, !tbaa !7
  call void @llvm.lifetime.end.p0(i64 8, ptr %3) #24
  ret i64 %12
}

; Function Attrs: inlinehint nounwind sspstrong willreturn memory(read) uwtable
define internal zeroext i1 @RB_FL_ANY_RAW(i64 noundef %0, i64 noundef %1) #4 {
  %3 = alloca i64, align 8
  %4 = alloca i64, align 8
  store i64 %0, ptr %3, align 8, !tbaa !7
  store i64 %1, ptr %4, align 8, !tbaa !7
  %5 = load i64, ptr %3, align 8, !tbaa !7
  %6 = load i64, ptr %4, align 8, !tbaa !7
  %7 = call i64 @RB_FL_TEST_RAW(i64 noundef %5, i64 noundef %6) #21
  %8 = icmp ne i64 %7, 0
  ret i1 %8
}

; Function Attrs: inlinehint nounwind sspstrong memory(argmem: readwrite, inaccessiblemem: readwrite) uwtable
define internal i64 @rbimpl_intern_const(ptr noundef nonnull %0, ptr noundef nonnull %1) #5 {
  %3 = alloca ptr, align 8
  %4 = alloca ptr, align 8
  store ptr %0, ptr %3, align 8, !tbaa !14
  store ptr %1, ptr %4, align 8, !tbaa !11
  br label %5

5:                                                ; preds = %10, %2
  %6 = load ptr, ptr %3, align 8, !tbaa !14
  %7 = load i64, ptr %6, align 8, !tbaa !7
  %8 = icmp ne i64 %7, 0
  %9 = xor i1 %8, true
  br i1 %9, label %10, label %14

10:                                               ; preds = %5
  %11 = load ptr, ptr %4, align 8, !tbaa !11
  %12 = call i64 @rb_intern_const(ptr noundef %11) #21
  %13 = load ptr, ptr %3, align 8, !tbaa !14
  store i64 %12, ptr %13, align 8, !tbaa !7
  br label %5, !llvm.loop !16

14:                                               ; preds = %5
  %15 = load ptr, ptr %3, align 8, !tbaa !14
  %16 = load i64, ptr %15, align 8, !tbaa !7
  ret i64 %16
}

; Function Attrs: inlinehint nounwind sspstrong willreturn memory(read) uwtable
define internal i64 @rb_array_len(i64 noundef %0) #4 {
  %2 = alloca i64, align 8
  %3 = alloca i64, align 8
  store i64 %0, ptr %3, align 8, !tbaa !7
  %4 = load i64, ptr %3, align 8, !tbaa !7
  %5 = call zeroext i1 @RB_FL_ANY_RAW(i64 noundef %4, i64 noundef 8192) #21
  br i1 %5, label %6, label %9

6:                                                ; preds = %1
  %7 = load i64, ptr %3, align 8, !tbaa !7
  %8 = call i64 @RARRAY_EMBED_LEN(i64 noundef %7) #21
  store i64 %8, ptr %2, align 8
  br label %15

9:                                                ; preds = %1
  %10 = load i64, ptr %3, align 8, !tbaa !7
  %11 = inttoptr i64 %10 to ptr
  %12 = getelementptr inbounds nuw %struct.RArray, ptr %11, i32 0, i32 1
  %13 = getelementptr inbounds nuw %struct.anon.3, ptr %12, i32 0, i32 0
  %14 = load i64, ptr %13, align 8, !tbaa !71
  store i64 %14, ptr %2, align 8
  br label %15

15:                                               ; preds = %9, %6
  %16 = load i64, ptr %2, align 8
  ret i64 %16
}

; Function Attrs: nounwind sspstrong uwtable
define internal void @parse_lex_encoding_changed_callback(ptr noundef %0) #0 {
  %2 = alloca ptr, align 8
  %3 = alloca ptr, align 8
  %4 = alloca i64, align 8
  %5 = alloca i64, align 8
  %6 = alloca i64, align 8
  %7 = alloca i64, align 8
  %8 = alloca i64, align 8
  %9 = alloca i64, align 8
  %10 = alloca i64, align 8
  %11 = alloca i64, align 8
  %12 = alloca [4 x i64], align 16
  %13 = alloca i64, align 8
  %14 = alloca i64, align 8
  %15 = alloca i64, align 8
  %16 = alloca i64, align 8
  store ptr %0, ptr %2, align 8, !tbaa !91
  call void @llvm.lifetime.start.p0(i64 8, ptr %3) #24
  %17 = load ptr, ptr %2, align 8, !tbaa !91
  %18 = getelementptr inbounds nuw %struct.pm_parser, ptr %17, i32 0, i32 25
  %19 = load ptr, ptr %18, align 8, !tbaa !63
  %20 = getelementptr inbounds nuw %struct.pm_lex_callback_t, ptr %19, i32 0, i32 0
  %21 = load ptr, ptr %20, align 8, !tbaa !60
  store ptr %21, ptr %3, align 8, !tbaa !49
  %22 = load ptr, ptr %2, align 8, !tbaa !91
  %23 = getelementptr inbounds nuw %struct.pm_parser, ptr %22, i32 0, i32 22
  %24 = load ptr, ptr %23, align 8, !tbaa !22
  %25 = getelementptr inbounds nuw %struct.pm_encoding_t, ptr %24, i32 0, i32 4
  %26 = load ptr, ptr %25, align 8, !tbaa !38
  %27 = call ptr @rb_enc_find(ptr noundef %26)
  %28 = load ptr, ptr %3, align 8, !tbaa !49
  %29 = getelementptr inbounds nuw %struct.parse_lex_data_t, ptr %28, i32 0, i32 2
  store ptr %27, ptr %29, align 8, !tbaa !58
  call void @llvm.lifetime.start.p0(i64 8, ptr %4) #24
  %30 = load ptr, ptr %3, align 8, !tbaa !49
  %31 = getelementptr inbounds nuw %struct.parse_lex_data_t, ptr %30, i32 0, i32 1
  %32 = load i64, ptr %31, align 8, !tbaa !57
  store i64 %32, ptr %4, align 8, !tbaa !7
  call void @llvm.lifetime.start.p0(i64 8, ptr %5) #24
  %33 = call i64 @rb_ary_new()
  store i64 %33, ptr %5, align 8, !tbaa !7
  call void @llvm.lifetime.start.p0(i64 8, ptr %6) #24
  store i64 0, ptr %6, align 8, !tbaa !7
  br label %34

34:                                               ; preds = %100, %1
  %35 = load i64, ptr %6, align 8, !tbaa !7
  %36 = load i64, ptr %4, align 8, !tbaa !7
  %37 = call i64 @rb_array_len(i64 noundef %36) #21
  %38 = icmp slt i64 %35, %37
  br i1 %38, label %40, label %39

39:                                               ; preds = %34
  call void @llvm.lifetime.end.p0(i64 8, ptr %6) #24
  br label %103

40:                                               ; preds = %34
  call void @llvm.lifetime.start.p0(i64 8, ptr %7) #24
  %41 = load i64, ptr %4, align 8, !tbaa !7
  %42 = load i64, ptr %6, align 8, !tbaa !7
  %43 = call i64 @rb_ary_entry(i64 noundef %41, i64 noundef %42) #21
  store i64 %43, ptr %7, align 8, !tbaa !7
  call void @llvm.lifetime.start.p0(i64 8, ptr %8) #24
  %44 = load i64, ptr %7, align 8, !tbaa !7
  %45 = call i64 @rb_ary_entry(i64 noundef %44, i64 noundef 0) #21
  store i64 %45, ptr %8, align 8, !tbaa !7
  call void @llvm.lifetime.start.p0(i64 8, ptr %9) #24
  %46 = load i64, ptr %8, align 8, !tbaa !7
  %47 = call i64 @rbimpl_intern_const(ptr noundef @parse_lex_encoding_changed_callback.rbimpl_id, ptr noundef @.str.72) #23
  store i64 %47, ptr %10, align 8, !tbaa !7
  %48 = load i64, ptr %10, align 8, !tbaa !7
  %49 = call i64 @rb_ivar_get(i64 noundef %46, i64 noundef %48)
  store i64 %49, ptr %9, align 8, !tbaa !7
  call void @llvm.lifetime.start.p0(i64 8, ptr %11) #24
  %50 = load i64, ptr %9, align 8, !tbaa !7
  %51 = call i64 @rb_str_dup(i64 noundef %50)
  store i64 %51, ptr %11, align 8, !tbaa !7
  %52 = load i64, ptr %11, align 8, !tbaa !7
  %53 = load ptr, ptr %3, align 8, !tbaa !49
  %54 = getelementptr inbounds nuw %struct.parse_lex_data_t, ptr %53, i32 0, i32 2
  %55 = load ptr, ptr %54, align 8, !tbaa !58
  %56 = call i64 @rb_enc_associate(i64 noundef %52, ptr noundef %55)
  %57 = load ptr, ptr %3, align 8, !tbaa !49
  %58 = getelementptr inbounds nuw %struct.parse_lex_data_t, ptr %57, i32 0, i32 3
  %59 = load i8, ptr %58, align 8, !tbaa !59, !range !45, !noundef !46
  %60 = trunc i8 %59 to i1
  br i1 %60, label %61, label %64

61:                                               ; preds = %40
  %62 = load i64, ptr %11, align 8, !tbaa !7
  %63 = call i64 @rb_obj_freeze(i64 noundef %62)
  br label %64

64:                                               ; preds = %61, %40
  call void @llvm.lifetime.start.p0(i64 32, ptr %12) #24
  %65 = load ptr, ptr %3, align 8, !tbaa !49
  %66 = getelementptr inbounds nuw %struct.parse_lex_data_t, ptr %65, i32 0, i32 0
  %67 = load i64, ptr %66, align 8, !tbaa !55
  store i64 %67, ptr %12, align 8, !tbaa !7
  %68 = getelementptr inbounds i64, ptr %12, i64 1
  %69 = load i64, ptr %8, align 8, !tbaa !7
  %70 = call i64 @rbimpl_intern_const(ptr noundef @parse_lex_encoding_changed_callback.rbimpl_id.73, ptr noundef @.str.74) #23
  store i64 %70, ptr %13, align 8, !tbaa !7
  %71 = load i64, ptr %13, align 8, !tbaa !7
  %72 = call i64 @rb_ivar_get(i64 noundef %69, i64 noundef %71)
  store i64 %72, ptr %68, align 8, !tbaa !7
  %73 = getelementptr inbounds i64, ptr %12, i64 2
  %74 = load i64, ptr %11, align 8, !tbaa !7
  store i64 %74, ptr %73, align 8, !tbaa !7
  %75 = getelementptr inbounds i64, ptr %12, i64 3
  %76 = load i64, ptr %8, align 8, !tbaa !7
  %77 = call i64 @rbimpl_intern_const(ptr noundef @parse_lex_encoding_changed_callback.rbimpl_id.75, ptr noundef @.str.76) #23
  store i64 %77, ptr %14, align 8, !tbaa !7
  %78 = load i64, ptr %14, align 8, !tbaa !7
  %79 = call i64 @rb_ivar_get(i64 noundef %76, i64 noundef %78)
  store i64 %79, ptr %75, align 8, !tbaa !7
  call void @llvm.lifetime.start.p0(i64 8, ptr %15) #24
  %80 = getelementptr inbounds [4 x i64], ptr %12, i64 0, i64 0
  %81 = load i64, ptr @rb_cPrismToken, align 8, !tbaa !7
  %82 = call i64 @rb_class_new_instance(i32 noundef 4, ptr noundef %80, i64 noundef %81)
  store i64 %82, ptr %15, align 8, !tbaa !7
  call void @llvm.lifetime.start.p0(i64 8, ptr %16) #24
  %83 = load i64, ptr %15, align 8, !tbaa !7
  %84 = load i64, ptr %7, align 8, !tbaa !7
  %85 = call i64 @rb_ary_entry(i64 noundef %84, i64 noundef 1) #21
  %86 = call i64 @rb_assoc_new(i64 noundef %83, i64 noundef %85)
  store i64 %86, ptr %16, align 8, !tbaa !7
  %87 = load ptr, ptr %3, align 8, !tbaa !49
  %88 = getelementptr inbounds nuw %struct.parse_lex_data_t, ptr %87, i32 0, i32 3
  %89 = load i8, ptr %88, align 8, !tbaa !59, !range !45, !noundef !46
  %90 = trunc i8 %89 to i1
  br i1 %90, label %91, label %96

91:                                               ; preds = %64
  %92 = load i64, ptr %15, align 8, !tbaa !7
  %93 = call i64 @rb_obj_freeze(i64 noundef %92)
  %94 = load i64, ptr %16, align 8, !tbaa !7
  %95 = call i64 @rb_obj_freeze(i64 noundef %94)
  br label %96

96:                                               ; preds = %91, %64
  %97 = load i64, ptr %5, align 8, !tbaa !7
  %98 = load i64, ptr %16, align 8, !tbaa !7
  %99 = call i64 @rb_ary_push(i64 noundef %97, i64 noundef %98)
  call void @llvm.lifetime.end.p0(i64 8, ptr %16) #24
  call void @llvm.lifetime.end.p0(i64 8, ptr %15) #24
  call void @llvm.lifetime.end.p0(i64 32, ptr %12) #24
  call void @llvm.lifetime.end.p0(i64 8, ptr %11) #24
  call void @llvm.lifetime.end.p0(i64 8, ptr %9) #24
  call void @llvm.lifetime.end.p0(i64 8, ptr %8) #24
  call void @llvm.lifetime.end.p0(i64 8, ptr %7) #24
  br label %100

100:                                              ; preds = %96
  %101 = load i64, ptr %6, align 8, !tbaa !7
  %102 = add i64 %101, 1
  store i64 %102, ptr %6, align 8, !tbaa !7
  br label %34, !llvm.loop !93

103:                                              ; preds = %39
  %104 = load ptr, ptr %3, align 8, !tbaa !49
  %105 = getelementptr inbounds nuw %struct.parse_lex_data_t, ptr %104, i32 0, i32 1
  %106 = load i64, ptr %105, align 8, !tbaa !57
  %107 = load i64, ptr %5, align 8, !tbaa !7
  %108 = call i64 @rb_ary_replace(i64 noundef %106, i64 noundef %107)
  call void @llvm.lifetime.end.p0(i64 8, ptr %5) #24
  call void @llvm.lifetime.end.p0(i64 8, ptr %4) #24
  call void @llvm.lifetime.end.p0(i64 8, ptr %3) #24
  ret void
}