; Function Attrs: nounwind sspstrong uwtable
define internal void @parse_lex_encoding_changed_callback(ptr noundef readonly captures(none) %0) #0 {
  %2 = alloca [4 x i64], align 16
  %3 = getelementptr inbounds nuw i8, ptr %0, i64 544
  %4 = load ptr, ptr %3, align 8, !tbaa !64
  %5 = load ptr, ptr %4, align 8, !tbaa !61
  %6 = getelementptr inbounds nuw i8, ptr %0, i64 520
  %7 = load ptr, ptr %6, align 8, !tbaa !26
  %8 = getelementptr inbounds nuw i8, ptr %7, i64 32
  %9 = load ptr, ptr %8, align 8, !tbaa !41
  %10 = tail call ptr @rb_enc_find(ptr noundef %9) #9
  %11 = getelementptr inbounds nuw i8, ptr %5, i64 16
  store ptr %10, ptr %11, align 8, !tbaa !59
  %12 = getelementptr inbounds nuw i8, ptr %5, i64 8
  %13 = load i64, ptr %12, align 8, !tbaa !58
  %14 = tail call i64 @rb_ary_new() #9
  %15 = inttoptr i64 %13 to ptr
  %16 = getelementptr inbounds nuw i8, ptr %15, i64 16
  %17 = getelementptr inbounds nuw i8, ptr %5, i64 24
  %18 = getelementptr inbounds nuw i8, ptr %2, i64 8
  %19 = getelementptr inbounds nuw i8, ptr %2, i64 16
  %20 = getelementptr inbounds nuw i8, ptr %2, i64 24
  br label %21

21:                                               ; preds = %60, %1
  %.0 = phi i64 [ 0, %1 ], [ %62, %60 ]
  %22 = load i64, ptr %15, align 8, !tbaa !47
  %23 = and i64 %22, 8192
  %.not.i = icmp eq i64 %23, 0
  br i1 %.not.i, label %27, label %24

24:                                               ; preds = %21
  %25 = lshr i64 %22, 15
  %26 = and i64 %25, 127
  br label %rb_array_len.exit

27:                                               ; preds = %21
  %28 = load i64, ptr %16, align 8, !tbaa !67
  br label %rb_array_len.exit

rb_array_len.exit:                                ; preds = %24, %27
  %.0.i = phi i64 [ %26, %24 ], [ %28, %27 ]
  %29 = icmp slt i64 %.0, %.0.i
  br i1 %29, label %33, label %30

30:                                               ; preds = %rb_array_len.exit
  %31 = load i64, ptr %12, align 8, !tbaa !58
  %32 = call i64 @rb_ary_replace(i64 noundef %31, i64 noundef %14) #9
  ret void

33:                                               ; preds = %rb_array_len.exit
  %34 = call i64 @rb_ary_entry(i64 noundef %13, i64 noundef %.0) #10
  %35 = call i64 @rb_ary_entry(i64 noundef %34, i64 noundef 0) #10
  %.pr.i = load i64, ptr @parse_lex_encoding_changed_callback.rbimpl_id, align 8, !tbaa !7
  %.not4.i = icmp eq i64 %.pr.i, 0
  br i1 %.not4.i, label %.lr.ph.i, label %rbimpl_intern_const.exit

.lr.ph.i:                                         ; preds = %33, %.lr.ph.i
  %36 = call i64 @rb_intern2(ptr noundef nonnull @.str.72, i64 noundef 6) #9
  store i64 %36, ptr @parse_lex_encoding_changed_callback.rbimpl_id, align 8, !tbaa !7
  %.not.i31 = icmp eq i64 %36, 0
  br i1 %.not.i31, label %.lr.ph.i, label %rbimpl_intern_const.exit, !llvm.loop !11

rbimpl_intern_const.exit:                         ; preds = %.lr.ph.i, %33
  %.lcssa.i = phi i64 [ %.pr.i, %33 ], [ %36, %.lr.ph.i ]
  %37 = call i64 @rb_ivar_get(i64 noundef %35, i64 noundef %.lcssa.i) #9
  %38 = call i64 @rb_str_dup(i64 noundef %37) #9
  %39 = load ptr, ptr %11, align 8, !tbaa !59
  %40 = call i64 @rb_enc_associate(i64 noundef %38, ptr noundef %39) #9
  %41 = load i8, ptr %17, align 8, !tbaa !60, !range !44, !noundef !45
  %42 = trunc nuw i8 %41 to i1
  br i1 %42, label %43, label %45

43:                                               ; preds = %rbimpl_intern_const.exit
  %44 = call i64 @rb_obj_freeze(i64 noundef %38) #9
  br label %45

45:                                               ; preds = %43, %rbimpl_intern_const.exit
  call void @llvm.lifetime.start.p0(i64 32, ptr nonnull %2) #9
  %46 = load i64, ptr %5, align 8, !tbaa !55
  store i64 %46, ptr %2, align 16, !tbaa !7
  %.pr.i32 = load i64, ptr @parse_lex_encoding_changed_callback.rbimpl_id.73, align 8, !tbaa !7
  %.not4.i33 = icmp eq i64 %.pr.i32, 0
  br i1 %.not4.i33, label %.lr.ph.i35, label %rbimpl_intern_const.exit37

.lr.ph.i35:                                       ; preds = %45, %.lr.ph.i35
  %47 = call i64 @rb_intern2(ptr noundef nonnull @.str.74, i64 noundef 5) #9
  store i64 %47, ptr @parse_lex_encoding_changed_callback.rbimpl_id.73, align 8, !tbaa !7
  %.not.i36 = icmp eq i64 %47, 0
  br i1 %.not.i36, label %.lr.ph.i35, label %rbimpl_intern_const.exit37, !llvm.loop !11

rbimpl_intern_const.exit37:                       ; preds = %.lr.ph.i35, %45
  %.lcssa.i34 = phi i64 [ %.pr.i32, %45 ], [ %47, %.lr.ph.i35 ]
  %48 = call i64 @rb_ivar_get(i64 noundef %35, i64 noundef %.lcssa.i34) #9
  store i64 %48, ptr %18, align 8, !tbaa !7
  store i64 %38, ptr %19, align 16, !tbaa !7
  %.pr.i38 = load i64, ptr @parse_lex_encoding_changed_callback.rbimpl_id.75, align 8, !tbaa !7
  %.not4.i39 = icmp eq i64 %.pr.i38, 0
  br i1 %.not4.i39, label %.lr.ph.i41, label %rbimpl_intern_const.exit43

.lr.ph.i41:                                       ; preds = %rbimpl_intern_const.exit37, %.lr.ph.i41
  %49 = call i64 @rb_intern2(ptr noundef nonnull @.str.76, i64 noundef 9) #9
  store i64 %49, ptr @parse_lex_encoding_changed_callback.rbimpl_id.75, align 8, !tbaa !7
  %.not.i42 = icmp eq i64 %49, 0
  br i1 %.not.i42, label %.lr.ph.i41, label %rbimpl_intern_const.exit43, !llvm.loop !11

rbimpl_intern_const.exit43:                       ; preds = %.lr.ph.i41, %rbimpl_intern_const.exit37
  %.lcssa.i40 = phi i64 [ %.pr.i38, %rbimpl_intern_const.exit37 ], [ %49, %.lr.ph.i41 ]
  %50 = call i64 @rb_ivar_get(i64 noundef %35, i64 noundef %.lcssa.i40) #9
  store i64 %50, ptr %20, align 8, !tbaa !7
  %51 = load i64, ptr @rb_cPrismToken, align 8, !tbaa !7
  %52 = call i64 @rb_class_new_instance(i32 noundef 4, ptr noundef nonnull %2, i64 noundef %51) #9
  %53 = call i64 @rb_ary_entry(i64 noundef %34, i64 noundef 1) #10
  %54 = call i64 @rb_assoc_new(i64 noundef %52, i64 noundef %53) #9
  %55 = load i8, ptr %17, align 8, !tbaa !60, !range !44, !noundef !45
  %56 = trunc nuw i8 %55 to i1
  br i1 %56, label %57, label %60

57:                                               ; preds = %rbimpl_intern_const.exit43
  %58 = call i64 @rb_obj_freeze(i64 noundef %52) #9
  %59 = call i64 @rb_obj_freeze(i64 noundef %54) #9
  br label %60

60:                                               ; preds = %57, %rbimpl_intern_const.exit43
  %61 = call i64 @rb_ary_push(i64 noundef %14, i64 noundef %54) #9
  call void @llvm.lifetime.end.p0(i64 32, ptr nonnull %2) #9
  %62 = add nuw i64 %.0, 1
  br label %21, !llvm.loop !75
}